; Function Attrs: mustprogress nofree nounwind uwtable
define dso_local noundef zeroext i1 @_ZN5cmsys11SystemTools14TestFileAccessERKNSt7__cxx1112basic_stringIcSt11char_traitsIcESaIcEEEi(ptr noundef nonnull readonly align 8 captures(none) dereferenceable(32) %0, i32 noundef %1) local_unnamed_addr #3 align 2 {
  %3 = getelementptr inbounds nuw i8, ptr %0, i64 8
  %4 = load i64, ptr %3, align 8, !tbaa !18
  %5 = icmp eq i64 %4, 0
  br i1 %5, label %10, label %6

6:                                                ; preds = %2
  %7 = load ptr, ptr %0, align 8, !tbaa !21
  %8 = tail call i32 @access(ptr noundef %7, i32 noundef %1) #39
  %9 = icmp eq i32 %8, 0
  br label %10

10:                                               ; preds = %2, %6
  %.0 = phi i1 [ %9, %6 ], [ false, %2 ]
  ret i1 %.0
}